; Function Attrs: mustprogress nounwind uwtable
define dso_local void @_ZN12cmSearchPathD2Ev(ptr noundef nonnull readonly align 8 captures(none) dereferenceable(32) %0) unnamed_addr #4 align 2 personality ptr @__gxx_personality_v0 {
  %2 = getelementptr inbounds nuw i8, ptr %0, i64 8
  %3 = load ptr, ptr %2, align 8
  %4 = getelementptr inbounds nuw i8, ptr %0, i64 16
  %5 = load ptr, ptr %4, align 8
  %.not4.i.i.i.i = icmp eq ptr %3, %5
  br i1 %.not4.i.i.i.i, label %_ZSt8_DestroyIPN12cmSearchPath14PathWithPrefixES1_EvT_S3_RSaIT0_E.exit.i, label %.lr.ph.i.i.i.i

.lr.ph.i.i.i.i:                                   ; preds = %1, %.lr.ph.i.i.i.i
  %.05.i.i.i.i = phi ptr [ %7, %.lr.ph.i.i.i.i ], [ %3, %1 ]
  %6 = getelementptr inbounds nuw i8, ptr %.05.i.i.i.i, i64 32
  tail call void @_ZNSt7__cxx1112basic_stringIcSt11char_traitsIcESaIcEED1Ev(ptr noundef nonnull align 8 dereferenceable(32) %6) #18
  tail call void @_ZNSt7__cxx1112basic_stringIcSt11char_traitsIcESaIcEED1Ev(ptr noundef nonnull align 8 dereferenceable(64) %.05.i.i.i.i) #18
  %7 = getelementptr inbounds nuw i8, ptr %.05.i.i.i.i, i64 64
  %.not.i.i.i.i = icmp eq ptr %7, %5
  br i1 %.not.i.i.i.i, label %_ZSt8_DestroyIPN12cmSearchPath14PathWithPrefixES1_EvT_S3_RSaIT0_E.exitthread-pre-split.i, label %.lr.ph.i.i.i.i, !llvm.loop !5

_ZSt8_DestroyIPN12cmSearchPath14PathWithPrefixES1_EvT_S3_RSaIT0_E.exitthread-pre-split.i: ; preds = %.lr.ph.i.i.i.i
  %.pr.i = load ptr, ptr %2, align 8
  br label %_ZSt8_DestroyIPN12cmSearchPath14PathWithPrefixES1_EvT_S3_RSaIT0_E.exit.i

_ZSt8_DestroyIPN12cmSearchPath14PathWithPrefixES1_EvT_S3_RSaIT0_E.exit.i: ; preds = %_ZSt8_DestroyIPN12cmSearchPath14PathWithPrefixES1_EvT_S3_RSaIT0_E.exitthread-pre-split.i, %1
  %8 = phi ptr [ %.pr.i, %_ZSt8_DestroyIPN12cmSearchPath14PathWithPrefixES1_EvT_S3_RSaIT0_E.exitthread-pre-split.i ], [ %3, %1 ]
  %.not.i.i.i = icmp eq ptr %8, null
  br i1 %.not.i.i.i, label %_ZNSt6vectorIN12cmSearchPath14PathWithPrefixESaIS1_EED2Ev.exit, label %9

9:                                                ; preds = %_ZSt8_DestroyIPN12cmSearchPath14PathWithPrefixES1_EvT_S3_RSaIT0_E.exit.i
  tail call void @_ZdlPv(ptr noundef nonnull %8) #19
  br label %_ZNSt6vectorIN12cmSearchPath14PathWithPrefixESaIS1_EED2Ev.exit

_ZNSt6vectorIN12cmSearchPath14PathWithPrefixESaIS1_EED2Ev.exit: ; preds = %_ZSt8_DestroyIPN12cmSearchPath14PathWithPrefixES1_EvT_S3_RSaIT0_E.exit.i, %9
  ret void
}